target datalayout = "e-m:e-p270:32:32-p271:32:32-p272:64:64-i64:64-i128:128-f80:128-n8:16:32:64-S128"
target triple = "x86_64-pc-linux-gnu"

%struct.stat = type { i64, i64, i64, i32, i32, i32, i32, i64, i64, i64, i64, %struct.timespec, %struct.timespec, %struct.timespec, [3 x i64] }
%struct.timespec = type { i64, i64 }

; Function Attrs: nounwind uwtable
define dso_local i32 @dirExists(ptr noundef %0) #0 {
  %2 = alloca ptr, align 8
  %3 = alloca %struct.stat, align 8
  store ptr %0, ptr %2, align 8, !tbaa !5
  call void @llvm.lifetime.start.p0(i64 144, ptr %3) #13
  %4 = load ptr, ptr %2, align 8, !tbaa !5
  %5 = call i32 @stat64(ptr noundef %4, ptr noundef %3) #13
  %6 = icmp eq i32 %5, 0
  br i1 %6, label %7, label %12

7:                                                ; preds = %1
  %8 = getelementptr inbounds nuw %struct.stat, ptr %3, i32 0, i32 3
  %9 = load i32, ptr %8, align 8, !tbaa !67
  %10 = and i32 %9, 61440
  %11 = icmp eq i32 %10, 16384
  br label %12

12:                                               ; preds = %7, %1
  %13 = phi i1 [ false, %1 ], [ %11, %7 ]
  %14 = zext i1 %13 to i32
  call void @llvm.lifetime.end.p0(i64 144, ptr %3) #13
  ret i32 %14
}