; Function Attrs: nofree nounwind uwtable
define dso_local range(i32 0, 2) i32 @dirExists(ptr noundef readonly captures(none) %0) local_unnamed_addr #6 {
  %2 = alloca %struct.stat, align 8
  call void @llvm.lifetime.start.p0(i64 144, ptr nonnull %2) #29
  %3 = call i32 @stat64(ptr noundef %0, ptr noundef nonnull %2) #29
  %4 = icmp eq i32 %3, 0
  %5 = getelementptr inbounds nuw i8, ptr %2, i64 24
  %6 = load i32, ptr %5, align 8
  %7 = and i32 %6, 61440
  %8 = icmp eq i32 %7, 16384
  %9 = select i1 %4, i1 %8, i1 false
  %10 = zext i1 %9 to i32
  call void @llvm.lifetime.end.p0(i64 144, ptr nonnull %2) #29
  ret i32 %10
}